target datalayout = "e-m:e-p270:32:32-p271:32:32-p272:64:64-i64:64-i128:128-f80:128-n8:16:32:64-S128"
target triple = "x86_64-pc-linux-gnu"

%struct.PROV_DH_CTX = type { ptr, ptr, ptr, i8, i32, ptr, ptr, i64, i64, ptr }

@.str = private unnamed_addr constant [56 x i8] c"../openssl/providers/implementations/exchange/dh_exch.c\00", align 1

; Function Attrs: nounwind uwtable
define internal void @dh_freectx(ptr noundef %0) #0 {
  %2 = alloca ptr, align 8
  %3 = alloca ptr, align 8
  store ptr %0, ptr %2, align 8, !tbaa !3
  call void @llvm.lifetime.start.p0(i64 8, ptr %3) #7
  %4 = load ptr, ptr %2, align 8, !tbaa !3
  store ptr %4, ptr %3, align 8, !tbaa !3
  %5 = load ptr, ptr %3, align 8, !tbaa !3
  %6 = getelementptr inbounds nuw %struct.PROV_DH_CTX, ptr %5, i32 0, i32 9
  %7 = load ptr, ptr %6, align 8, !tbaa !24
  call void @CRYPTO_free(ptr noundef %7, ptr noundef @.str, i32 noundef 277)
  %8 = load ptr, ptr %3, align 8, !tbaa !3
  %9 = getelementptr inbounds nuw %struct.PROV_DH_CTX, ptr %8, i32 0, i32 1
  %10 = load ptr, ptr %9, align 8, !tbaa !18
  call void @DH_free(ptr noundef %10)
  %11 = load ptr, ptr %3, align 8, !tbaa !3
  %12 = getelementptr inbounds nuw %struct.PROV_DH_CTX, ptr %11, i32 0, i32 2
  %13 = load ptr, ptr %12, align 8, !tbaa !23
  call void @DH_free(ptr noundef %13)
  %14 = load ptr, ptr %3, align 8, !tbaa !3
  %15 = getelementptr inbounds nuw %struct.PROV_DH_CTX, ptr %14, i32 0, i32 5
  %16 = load ptr, ptr %15, align 8, !tbaa !25
  call void @EVP_MD_free(ptr noundef %16)
  %17 = load ptr, ptr %3, align 8, !tbaa !3
  %18 = getelementptr inbounds nuw %struct.PROV_DH_CTX, ptr %17, i32 0, i32 6
  %19 = load ptr, ptr %18, align 8, !tbaa !26
  %20 = load ptr, ptr %3, align 8, !tbaa !3
  %21 = getelementptr inbounds nuw %struct.PROV_DH_CTX, ptr %20, i32 0, i32 7
  %22 = load i64, ptr %21, align 8, !tbaa !27
  call void @CRYPTO_clear_free(ptr noundef %19, i64 noundef %22, ptr noundef @.str, i32 noundef 281)
  %23 = load ptr, ptr %3, align 8, !tbaa !3
  call void @CRYPTO_free(ptr noundef %23, ptr noundef @.str, i32 noundef 283)
  call void @llvm.lifetime.end.p0(i64 8, ptr %3) #7
  ret void
}

; Function Attrs: nounwind uwtable
define internal ptr @dh_dupctx(ptr noundef %0) #0 {
  %2 = alloca ptr, align 8
  %3 = alloca ptr, align 8
  %4 = alloca ptr, align 8
  %5 = alloca ptr, align 8
  %6 = alloca i32, align 4
  store ptr %0, ptr %3, align 8, !tbaa !3
  call void @llvm.lifetime.start.p0(i64 8, ptr %4) #7
  %7 = load ptr, ptr %3, align 8, !tbaa !3
  store ptr %7, ptr %4, align 8, !tbaa !3
  call void @llvm.lifetime.start.p0(i64 8, ptr %5) #7
  %8 = call i32 @ossl_prov_is_running()
  %9 = icmp ne i32 %8, 0
  br i1 %9, label %11, label %10

10:                                               ; preds = %1
  store ptr null, ptr %2, align 8
  store i32 1, ptr %6, align 4
  br label %130

11:                                               ; preds = %1
  %12 = call noalias ptr @CRYPTO_zalloc(i64 noundef 72, ptr noundef @.str, i32 noundef 294)
  store ptr %12, ptr %5, align 8, !tbaa !3
  %13 = load ptr, ptr %5, align 8, !tbaa !3
  %14 = icmp eq ptr %13, null
  br i1 %14, label %15, label %16

15:                                               ; preds = %11
  store ptr null, ptr %2, align 8
  store i32 1, ptr %6, align 4
  br label %130

16:                                               ; preds = %11
  %17 = load ptr, ptr %5, align 8, !tbaa !3
  %18 = load ptr, ptr %4, align 8, !tbaa !3
  call void @llvm.memcpy.p0.p0.i64(ptr align 8 %17, ptr align 8 %18, i64 72, i1 false), !tbaa.struct !28
  %19 = load ptr, ptr %5, align 8, !tbaa !3
  %20 = getelementptr inbounds nuw %struct.PROV_DH_CTX, ptr %19, i32 0, i32 1
  store ptr null, ptr %20, align 8, !tbaa !18
  %21 = load ptr, ptr %5, align 8, !tbaa !3
  %22 = getelementptr inbounds nuw %struct.PROV_DH_CTX, ptr %21, i32 0, i32 2
  store ptr null, ptr %22, align 8, !tbaa !23
  %23 = load ptr, ptr %5, align 8, !tbaa !3
  %24 = getelementptr inbounds nuw %struct.PROV_DH_CTX, ptr %23, i32 0, i32 5
  store ptr null, ptr %24, align 8, !tbaa !25
  %25 = load ptr, ptr %5, align 8, !tbaa !3
  %26 = getelementptr inbounds nuw %struct.PROV_DH_CTX, ptr %25, i32 0, i32 6
  store ptr null, ptr %26, align 8, !tbaa !26
  %27 = load ptr, ptr %5, align 8, !tbaa !3
  %28 = getelementptr inbounds nuw %struct.PROV_DH_CTX, ptr %27, i32 0, i32 9
  store ptr null, ptr %28, align 8, !tbaa !24
  %29 = load ptr, ptr %4, align 8, !tbaa !3
  %30 = getelementptr inbounds nuw %struct.PROV_DH_CTX, ptr %29, i32 0, i32 1
  %31 = load ptr, ptr %30, align 8, !tbaa !18
  %32 = icmp ne ptr %31, null
  br i1 %32, label %33, label %40

33:                                               ; preds = %16
  %34 = load ptr, ptr %4, align 8, !tbaa !3
  %35 = getelementptr inbounds nuw %struct.PROV_DH_CTX, ptr %34, i32 0, i32 1
  %36 = load ptr, ptr %35, align 8, !tbaa !18
  %37 = call i32 @DH_up_ref(ptr noundef %36)
  %38 = icmp ne i32 %37, 0
  br i1 %38, label %40, label %39

39:                                               ; preds = %33
  br label %128

40:                                               ; preds = %33, %16
  %41 = load ptr, ptr %4, align 8, !tbaa !3
  %42 = getelementptr inbounds nuw %struct.PROV_DH_CTX, ptr %41, i32 0, i32 1
  %43 = load ptr, ptr %42, align 8, !tbaa !18
  %44 = load ptr, ptr %5, align 8, !tbaa !3
  %45 = getelementptr inbounds nuw %struct.PROV_DH_CTX, ptr %44, i32 0, i32 1
  store ptr %43, ptr %45, align 8, !tbaa !18
  br label %46

46:                                               ; preds = %40
  %47 = load ptr, ptr %4, align 8, !tbaa !3
  %48 = getelementptr inbounds nuw %struct.PROV_DH_CTX, ptr %47, i32 0, i32 2
  %49 = load ptr, ptr %48, align 8, !tbaa !23
  %50 = icmp ne ptr %49, null
  br i1 %50, label %51, label %58

51:                                               ; preds = %46
  %52 = load ptr, ptr %4, align 8, !tbaa !3
  %53 = getelementptr inbounds nuw %struct.PROV_DH_CTX, ptr %52, i32 0, i32 2
  %54 = load ptr, ptr %53, align 8, !tbaa !23
  %55 = call i32 @DH_up_ref(ptr noundef %54)
  %56 = icmp ne i32 %55, 0
  br i1 %56, label %58, label %57

57:                                               ; preds = %51
  br label %128

58:                                               ; preds = %51, %46
  %59 = load ptr, ptr %4, align 8, !tbaa !3
  %60 = getelementptr inbounds nuw %struct.PROV_DH_CTX, ptr %59, i32 0, i32 2
  %61 = load ptr, ptr %60, align 8, !tbaa !23
  %62 = load ptr, ptr %5, align 8, !tbaa !3
  %63 = getelementptr inbounds nuw %struct.PROV_DH_CTX, ptr %62, i32 0, i32 2
  store ptr %61, ptr %63, align 8, !tbaa !23
  br label %64

64:                                               ; preds = %58
  %65 = load ptr, ptr %4, align 8, !tbaa !3
  %66 = getelementptr inbounds nuw %struct.PROV_DH_CTX, ptr %65, i32 0, i32 5
  %67 = load ptr, ptr %66, align 8, !tbaa !25
  %68 = icmp ne ptr %67, null
  br i1 %68, label %69, label %76

69:                                               ; preds = %64
  %70 = load ptr, ptr %4, align 8, !tbaa !3
  %71 = getelementptr inbounds nuw %struct.PROV_DH_CTX, ptr %70, i32 0, i32 5
  %72 = load ptr, ptr %71, align 8, !tbaa !25
  %73 = call i32 @EVP_MD_up_ref(ptr noundef %72)
  %74 = icmp ne i32 %73, 0
  br i1 %74, label %76, label %75

75:                                               ; preds = %69
  br label %128

76:                                               ; preds = %69, %64
  %77 = load ptr, ptr %4, align 8, !tbaa !3
  %78 = getelementptr inbounds nuw %struct.PROV_DH_CTX, ptr %77, i32 0, i32 5
  %79 = load ptr, ptr %78, align 8, !tbaa !25
  %80 = load ptr, ptr %5, align 8, !tbaa !3
  %81 = getelementptr inbounds nuw %struct.PROV_DH_CTX, ptr %80, i32 0, i32 5
  store ptr %79, ptr %81, align 8, !tbaa !25
  br label %82

82:                                               ; preds = %76
  %83 = load ptr, ptr %4, align 8, !tbaa !3
  %84 = getelementptr inbounds nuw %struct.PROV_DH_CTX, ptr %83, i32 0, i32 6
  %85 = load ptr, ptr %84, align 8, !tbaa !26
  %86 = icmp ne ptr %85, null
  br i1 %86, label %87, label %108

87:                                               ; preds = %82
  %88 = load ptr, ptr %4, align 8, !tbaa !3
  %89 = getelementptr inbounds nuw %struct.PROV_DH_CTX, ptr %88, i32 0, i32 7
  %90 = load i64, ptr %89, align 8, !tbaa !27
  %91 = icmp ugt i64 %90, 0
  br i1 %91, label %92, label %108

92:                                               ; preds = %87
  %93 = load ptr, ptr %4, align 8, !tbaa !3
  %94 = getelementptr inbounds nuw %struct.PROV_DH_CTX, ptr %93, i32 0, i32 6
  %95 = load ptr, ptr %94, align 8, !tbaa !26
  %96 = load ptr, ptr %4, align 8, !tbaa !3
  %97 = getelementptr inbounds nuw %struct.PROV_DH_CTX, ptr %96, i32 0, i32 7
  %98 = load i64, ptr %97, align 8, !tbaa !27
  %99 = call noalias ptr @CRYPTO_memdup(ptr noundef %95, i64 noundef %98, ptr noundef @.str, i32 noundef 323)
  %100 = load ptr, ptr %5, align 8, !tbaa !3
  %101 = getelementptr inbounds nuw %struct.PROV_DH_CTX, ptr %100, i32 0, i32 6
  store ptr %99, ptr %101, align 8, !tbaa !26
  %102 = load ptr, ptr %5, align 8, !tbaa !3
  %103 = getelementptr inbounds nuw %struct.PROV_DH_CTX, ptr %102, i32 0, i32 6
  %104 = load ptr, ptr %103, align 8, !tbaa !26
  %105 = icmp eq ptr %104, null
  br i1 %105, label %106, label %107

106:                                              ; preds = %92
  br label %128

107:                                              ; preds = %92
  br label %108

108:                                              ; preds = %107, %87, %82
  %109 = load ptr, ptr %4, align 8, !tbaa !3
  %110 = getelementptr inbounds nuw %struct.PROV_DH_CTX, ptr %109, i32 0, i32 9
  %111 = load ptr, ptr %110, align 8, !tbaa !24
  %112 = icmp ne ptr %111, null
  br i1 %112, label %113, label %126

113:                                              ; preds = %108
  %114 = load ptr, ptr %4, align 8, !tbaa !3
  %115 = getelementptr inbounds nuw %struct.PROV_DH_CTX, ptr %114, i32 0, i32 9
  %116 = load ptr, ptr %115, align 8, !tbaa !24
  %117 = call noalias ptr @CRYPTO_strdup(ptr noundef %116, ptr noundef @.str, i32 noundef 329)
  %118 = load ptr, ptr %5, align 8, !tbaa !3
  %119 = getelementptr inbounds nuw %struct.PROV_DH_CTX, ptr %118, i32 0, i32 9
  store ptr %117, ptr %119, align 8, !tbaa !24
  %120 = load ptr, ptr %5, align 8, !tbaa !3
  %121 = getelementptr inbounds nuw %struct.PROV_DH_CTX, ptr %120, i32 0, i32 9
  %122 = load ptr, ptr %121, align 8, !tbaa !24
  %123 = icmp eq ptr %122, null
  br i1 %123, label %124, label %125

124:                                              ; preds = %113
  br label %128

125:                                              ; preds = %113
  br label %126

126:                                              ; preds = %125, %108
  %127 = load ptr, ptr %5, align 8, !tbaa !3
  store ptr %127, ptr %2, align 8
  store i32 1, ptr %6, align 4
  br label %130

128:                                              ; preds = %124, %106, %75, %57, %39
  %129 = load ptr, ptr %5, align 8, !tbaa !3
  call void @dh_freectx(ptr noundef %129)
  store ptr null, ptr %2, align 8
  store i32 1, ptr %6, align 4
  br label %130

130:                                              ; preds = %128, %126, %15, %10
  call void @llvm.lifetime.end.p0(i64 8, ptr %5) #7
  call void @llvm.lifetime.end.p0(i64 8, ptr %4) #7
  %131 = load ptr, ptr %2, align 8
  ret ptr %131
}