; Function Attrs: nounwind uwtable
define internal ptr @dh_dupctx(ptr noundef readonly captures(none) %0) #0 {
  %2 = tail call i32 @ossl_prov_is_running() #7
  %.not = icmp eq i32 %2, 0
  br i1 %.not, label %51, label %3

3:                                                ; preds = %1
  %4 = tail call noalias ptr @CRYPTO_zalloc(i64 noundef 72, ptr noundef nonnull @.str, i32 noundef 294) #7
  %5 = icmp eq ptr %4, null
  br i1 %5, label %51, label %6

6:                                                ; preds = %3
  tail call void @llvm.memcpy.p0.p0.i64(ptr noundef nonnull align 8 dereferenceable(72) %4, ptr noundef nonnull align 8 dereferenceable(72) %0, i64 64, i1 false), !tbaa.struct !23
  %7 = getelementptr inbounds nuw i8, ptr %4, i64 8
  %8 = getelementptr inbounds nuw i8, ptr %4, i64 16
  %9 = getelementptr inbounds nuw i8, ptr %4, i64 32
  %10 = getelementptr inbounds nuw i8, ptr %4, i64 40
  %11 = getelementptr inbounds nuw i8, ptr %4, i64 64
  store ptr null, ptr %11, align 8, !tbaa !19
  %12 = getelementptr inbounds nuw i8, ptr %0, i64 8
  tail call void @llvm.memset.p0.i64(ptr noundef nonnull align 8 dereferenceable(16) %7, i8 0, i64 16, i1 false)
  tail call void @llvm.memset.p0.i64(ptr noundef nonnull align 8 dereferenceable(16) %9, i8 0, i64 16, i1 false)
  %13 = load ptr, ptr %12, align 8, !tbaa !15
  %.not41 = icmp eq ptr %13, null
  br i1 %.not41, label %16, label %14

14:                                               ; preds = %6
  %15 = tail call i32 @DH_up_ref(ptr noundef nonnull %13) #7
  %.not42 = icmp eq i32 %15, 0
  br i1 %.not42, label %44, label %._crit_edge

._crit_edge:                                      ; preds = %14
  %.pre = load ptr, ptr %12, align 8, !tbaa !15
  br label %16

16:                                               ; preds = %._crit_edge, %6
  %17 = phi ptr [ %.pre, %._crit_edge ], [ null, %6 ]
  store ptr %17, ptr %7, align 8, !tbaa !15
  %18 = getelementptr inbounds nuw i8, ptr %0, i64 16
  %19 = load ptr, ptr %18, align 8, !tbaa !18
  %.not43 = icmp eq ptr %19, null
  br i1 %.not43, label %22, label %20

20:                                               ; preds = %16
  %21 = tail call i32 @DH_up_ref(ptr noundef nonnull %19) #7
  %.not44 = icmp eq i32 %21, 0
  br i1 %.not44, label %44, label %._crit_edge50

._crit_edge50:                                    ; preds = %20
  %.pre51 = load ptr, ptr %18, align 8, !tbaa !18
  br label %22

22:                                               ; preds = %._crit_edge50, %16
  %23 = phi ptr [ %.pre51, %._crit_edge50 ], [ null, %16 ]
  store ptr %23, ptr %8, align 8, !tbaa !18
  %24 = getelementptr inbounds nuw i8, ptr %0, i64 32
  %25 = load ptr, ptr %24, align 8, !tbaa !22
  %.not45 = icmp eq ptr %25, null
  br i1 %.not45, label %28, label %26

26:                                               ; preds = %22
  %27 = tail call i32 @EVP_MD_up_ref(ptr noundef nonnull %25) #7
  %.not46 = icmp eq i32 %27, 0
  br i1 %.not46, label %44, label %._crit_edge52

._crit_edge52:                                    ; preds = %26
  %.pre53 = load ptr, ptr %24, align 8, !tbaa !22
  br label %28

28:                                               ; preds = %._crit_edge52, %22
  %29 = phi ptr [ %.pre53, %._crit_edge52 ], [ null, %22 ]
  store ptr %29, ptr %9, align 8, !tbaa !22
  %30 = getelementptr inbounds nuw i8, ptr %0, i64 40
  %31 = load ptr, ptr %30, align 8, !tbaa !20
  %.not47 = icmp eq ptr %31, null
  br i1 %.not47, label %38, label %32

32:                                               ; preds = %28
  %33 = getelementptr inbounds nuw i8, ptr %0, i64 48
  %34 = load i64, ptr %33, align 8, !tbaa !21
  %.not48 = icmp eq i64 %34, 0
  br i1 %.not48, label %38, label %35

35:                                               ; preds = %32
  %36 = tail call noalias ptr @CRYPTO_memdup(ptr noundef nonnull %31, i64 noundef %34, ptr noundef nonnull @.str, i32 noundef 323) #7
  store ptr %36, ptr %10, align 8, !tbaa !20
  %37 = icmp eq ptr %36, null
  br i1 %37, label %44, label %38

38:                                               ; preds = %35, %32, %28
  %39 = getelementptr inbounds nuw i8, ptr %0, i64 64
  %40 = load ptr, ptr %39, align 8, !tbaa !19
  %.not49 = icmp eq ptr %40, null
  br i1 %.not49, label %51, label %41

41:                                               ; preds = %38
  %42 = tail call noalias ptr @CRYPTO_strdup(ptr noundef nonnull %40, ptr noundef nonnull @.str, i32 noundef 329) #7
  store ptr %42, ptr %11, align 8, !tbaa !19
  %43 = icmp eq ptr %42, null
  br i1 %43, label %44, label %51

44:                                               ; preds = %41, %35, %26, %20, %14
  %45 = phi ptr [ %17, %41 ], [ %17, %35 ], [ %17, %26 ], [ %17, %20 ], [ null, %14 ]
  tail call void @CRYPTO_free(ptr noundef null, ptr noundef nonnull @.str, i32 noundef 277) #7
  tail call void @DH_free(ptr noundef %45) #7
  %46 = load ptr, ptr %8, align 8, !tbaa !18
  tail call void @DH_free(ptr noundef %46) #7
  %47 = load ptr, ptr %9, align 8, !tbaa !22
  tail call void @EVP_MD_free(ptr noundef %47) #7
  %48 = load ptr, ptr %10, align 8, !tbaa !20
  %49 = getelementptr inbounds nuw i8, ptr %4, i64 48
  %50 = load i64, ptr %49, align 8, !tbaa !21
  tail call void @CRYPTO_clear_free(ptr noundef %48, i64 noundef %50, ptr noundef nonnull @.str, i32 noundef 281) #7
  tail call void @CRYPTO_free(ptr noundef nonnull %4, ptr noundef nonnull @.str, i32 noundef 283) #7
  br label %51

51:                                               ; preds = %38, %41, %3, %1, %44
  %.0 = phi ptr [ null, %44 ], [ null, %1 ], [ null, %3 ], [ %4, %41 ], [ %4, %38 ]
  ret ptr %.0
}